; Function Attrs: mustprogress nofree norecurse nosync nounwind willreturn memory(argmem: write) uwtable
define void @_ZN3net12SpdyAltSvcIRC2Ej(ptr noundef nonnull align 8 dereferenceable(72) initializes((0, 12)) %0, i32 noundef %1) unnamed_addr #9 align 2 personality ptr @__gxx_personality_v0 {
  %3 = getelementptr inbounds nuw i8, ptr %0, i64 8
  store i32 %1, ptr %3, align 8, !tbaa !13
  store ptr getelementptr inbounds nuw inrange(-16, 24) (i8, ptr @_ZTVN3net12SpdyAltSvcIRE, i64 16), ptr %0, align 8, !tbaa !20
  %4 = getelementptr inbounds nuw i8, ptr %0, i64 16
  %5 = getelementptr inbounds nuw i8, ptr %0, i64 32
  store ptr %5, ptr %4, align 8, !tbaa !3
  %6 = getelementptr inbounds nuw i8, ptr %0, i64 24
  store i64 0, ptr %6, align 8, !tbaa !9
  store i8 0, ptr %5, align 8, !tbaa !12
  %7 = getelementptr inbounds nuw i8, ptr %0, i64 48
  tail call void @llvm.memset.p0.i64(ptr noundef nonnull align 8 dereferenceable(24) %7, i8 0, i64 24, i1 false)
  ret void
}